; Function Attrs: nounwind uwtable
define internal void @hevc_decode_flush(ptr noundef %0) #0 {
  %2 = getelementptr inbounds nuw i8, ptr %0, i64 32
  %3 = load ptr, ptr %2, align 8, !tbaa !77
  tail call void @ff_hevc_flush_dpb(ptr noundef %3) #15
  %4 = getelementptr inbounds nuw i8, ptr %3, i64 7848
  tail call void @ff_h2645_sei_reset(ptr noundef nonnull %4) #15
  %5 = getelementptr inbounds nuw i8, ptr %3, i64 716088
  tail call void @ff_dovi_ctx_flush(ptr noundef nonnull %5) #15
  %6 = getelementptr inbounds nuw i8, ptr %3, i64 716080
  tail call void @av_buffer_unref(ptr noundef nonnull %6) #15
  %7 = getelementptr inbounds nuw i8, ptr %3, i64 11620
  store i32 1, ptr %7, align 4, !tbaa !122
  %8 = getelementptr inbounds nuw i8, ptr %0, i64 536
  %9 = load ptr, ptr %8, align 8, !tbaa !192
  %.not = icmp eq ptr %9, null
  br i1 %.not, label %14, label %10

10:                                               ; preds = %1
  %11 = getelementptr inbounds nuw i8, ptr %9, i64 120
  %12 = load ptr, ptr %11, align 8, !tbaa !193
  %.not10 = icmp eq ptr %12, null
  br i1 %.not10, label %14, label %13

13:                                               ; preds = %10
  tail call void %12(ptr noundef nonnull %0) #15
  br label %14

14:                                               ; preds = %13, %10, %1
  ret void
}